; Function Attrs: nounwind uwtable
define noundef ptr @Abc_NtkBddMux21(ptr noundef %0, ptr noundef readonly captures(none) %1) local_unnamed_addr #0 {
  %3 = getelementptr inbounds nuw i8, ptr %0, i64 256
  %4 = load ptr, ptr %3, align 8, !tbaa !48
  %5 = tail call ptr @Abc_NtkCreateObj(ptr noundef %0, i32 noundef 7) #20
  %6 = load ptr, ptr %1, align 8, !tbaa !49
  tail call void @Abc_ObjAddFanin(ptr noundef %5, ptr noundef %6) #20
  %7 = getelementptr inbounds nuw i8, ptr %1, i64 8
  %8 = load ptr, ptr %7, align 8, !tbaa !49
  tail call void @Abc_ObjAddFanin(ptr noundef %5, ptr noundef %8) #20
  %9 = getelementptr inbounds nuw i8, ptr %1, i64 16
  %10 = load ptr, ptr %9, align 8, !tbaa !49
  tail call void @Abc_ObjAddFanin(ptr noundef %5, ptr noundef %10) #20
  %11 = tail call ptr @Cudd_bddIthVar(ptr noundef %4, i32 noundef 0) #20
  %12 = tail call ptr @Cudd_bddIthVar(ptr noundef %4, i32 noundef 1) #20
  %13 = tail call ptr @Cudd_bddIthVar(ptr noundef %4, i32 noundef 2) #20
  %14 = tail call ptr @Cudd_bddIte(ptr noundef %4, ptr noundef %11, ptr noundef %13, ptr noundef %12) #20
  %15 = getelementptr inbounds nuw i8, ptr %5, i64 56
  store ptr %14, ptr %15, align 8, !tbaa !50
  tail call void @Cudd_Ref(ptr noundef %14) #20
  ret ptr %5
}